target datalayout = "e-m:e-p270:32:32-p271:32:32-p272:64:64-i64:64-i128:128-f80:128-n8:16:32:64-S128"
target triple = "x86_64-pc-linux-gnu"

%struct._generic_SUNAdaptController = type { ptr, ptr, ptr }
%struct._SUNAdaptControllerContent_ImExGus = type { double, double, double, double, double, double, double, i32 }

; Function Attrs: nounwind uwtable
define i32 @SUNAdaptController_SetParams_ImExGus(ptr noundef %0, double noundef %1, double noundef %2, double noundef %3, double noundef %4) #0 {
  %6 = alloca ptr, align 8
  %7 = alloca double, align 8
  %8 = alloca double, align 8
  %9 = alloca double, align 8
  %10 = alloca double, align 8
  %11 = alloca ptr, align 8
  store ptr %0, ptr %6, align 8, !tbaa !8
  store double %1, ptr %7, align 8, !tbaa !25
  store double %2, ptr %8, align 8, !tbaa !25
  store double %3, ptr %9, align 8, !tbaa !25
  store double %4, ptr %10, align 8, !tbaa !25
  call void @llvm.lifetime.start.p0(i64 8, ptr %11) #5
  %12 = load ptr, ptr %6, align 8, !tbaa !8
  %13 = getelementptr inbounds nuw %struct._generic_SUNAdaptController, ptr %12, i32 0, i32 2
  %14 = load ptr, ptr %13, align 8, !tbaa !31
  store ptr %14, ptr %11, align 8, !tbaa !3
  %15 = load double, ptr %7, align 8, !tbaa !25
  %16 = load ptr, ptr %6, align 8, !tbaa !8
  %17 = getelementptr inbounds nuw %struct._generic_SUNAdaptController, ptr %16, i32 0, i32 0
  %18 = load ptr, ptr %17, align 8, !tbaa !24
  %19 = getelementptr inbounds nuw %struct._SUNAdaptControllerContent_ImExGus, ptr %18, i32 0, i32 2
  store double %15, ptr %19, align 8, !tbaa !34
  %20 = load double, ptr %8, align 8, !tbaa !25
  %21 = load ptr, ptr %6, align 8, !tbaa !8
  %22 = getelementptr inbounds nuw %struct._generic_SUNAdaptController, ptr %21, i32 0, i32 0
  %23 = load ptr, ptr %22, align 8, !tbaa !24
  %24 = getelementptr inbounds nuw %struct._SUNAdaptControllerContent_ImExGus, ptr %23, i32 0, i32 3
  store double %20, ptr %24, align 8, !tbaa !35
  %25 = load double, ptr %9, align 8, !tbaa !25
  %26 = load ptr, ptr %6, align 8, !tbaa !8
  %27 = getelementptr inbounds nuw %struct._generic_SUNAdaptController, ptr %26, i32 0, i32 0
  %28 = load ptr, ptr %27, align 8, !tbaa !24
  %29 = getelementptr inbounds nuw %struct._SUNAdaptControllerContent_ImExGus, ptr %28, i32 0, i32 0
  store double %25, ptr %29, align 8, !tbaa !36
  %30 = load double, ptr %10, align 8, !tbaa !25
  %31 = load ptr, ptr %6, align 8, !tbaa !8
  %32 = getelementptr inbounds nuw %struct._generic_SUNAdaptController, ptr %31, i32 0, i32 0
  %33 = load ptr, ptr %32, align 8, !tbaa !24
  %34 = getelementptr inbounds nuw %struct._SUNAdaptControllerContent_ImExGus, ptr %33, i32 0, i32 1
  store double %30, ptr %34, align 8, !tbaa !37
  call void @llvm.lifetime.end.p0(i64 8, ptr %11) #5
  ret i32 0
}