; Function Attrs: mustprogress nofree norecurse nosync nounwind willreturn memory(write, argmem: readwrite, inaccessiblemem: none) uwtable
define noundef i32 @SUNAdaptController_SetParams_ImExGus(ptr noundef readonly captures(none) %0, double noundef %1, double noundef %2, double noundef %3, double noundef %4) local_unnamed_addr #3 {
  %6 = load ptr, ptr %0, align 8, !tbaa !19
  %7 = getelementptr inbounds nuw i8, ptr %6, i64 16
  store double %1, ptr %7, align 8, !tbaa !20
  %8 = getelementptr inbounds nuw i8, ptr %6, i64 24
  store double %2, ptr %8, align 8, !tbaa !24
  store double %3, ptr %6, align 8, !tbaa !25
  %9 = getelementptr inbounds nuw i8, ptr %6, i64 8
  store double %4, ptr %9, align 8, !tbaa !26
  ret i32 0
}